target datalayout = "e-m:e-p270:32:32-p271:32:32-p272:64:64-i64:64-i128:128-f80:128-n8:16:32:64-S128"
target triple = "x86_64-pc-linux-gnu"

%struct._zend_executor_globals = type { %struct._zval_struct, %struct._zval_struct, [32 x ptr], ptr, ptr, %struct._zend_array, %struct._zend_array, ptr, i32, i32, ptr, ptr, ptr, ptr, ptr, ptr, i64, ptr, ptr, i32, i32, i64, i32, i32, i32, i8, i8, %struct.zend_atomic_bool_s, %struct.zend_atomic_bool_s, ptr, i64, ptr, ptr, %struct._zend_array, %struct._zend_array, i32, i8, %struct._zval_struct, %struct._zval_struct, %struct._zend_stack, %struct._zend_stack, %struct._zend_stack, ptr, i32, i32, i64, ptr, ptr, ptr, %struct._zend_objects_store, ptr, ptr, ptr, [3 x %struct._zend_op], ptr, i8, i8, i64, i32, i32, ptr, [16 x %struct._HashTableIterator], ptr, %union._zend_function, %struct._zend_op, %struct._zend_array, i64, %struct.zend_get_gc_buffer, ptr, ptr, ptr, i64, i8, i32, ptr, ptr, i64, %struct._zend_call_stack, i64, i64, [6 x ptr] }
%struct.zend_atomic_bool_s = type { i8 }
%struct._zval_struct = type { %union._zend_value, %union.anon, %union.anon.2 }
%union._zend_value = type { i64 }
%union.anon = type { i32 }
%union.anon.2 = type { i32 }
%struct._zend_stack = type { i32, i32, i32, ptr }
%struct._zend_objects_store = type { ptr, i32, i32, i32 }
%struct._HashTableIterator = type { ptr, i32, i32 }
%union._zend_function = type { %struct._zend_op_array }
%struct._zend_op_array = type { i8, [3 x i8], i32, ptr, ptr, ptr, i32, i32, ptr, ptr, ptr, ptr, i32, i32, i32, i32, ptr, ptr, ptr, ptr, ptr, i32, i32, ptr, ptr, ptr, i32, i32, i32, i32, ptr, ptr, [6 x ptr] }
%struct._zend_op = type { ptr, %union._znode_op, %union._znode_op, %union._znode_op, i32, i32, i8, i8, i8, i8 }
%union._znode_op = type { i32 }
%struct._zend_array = type { %struct._zend_refcounted_h, %union.anon.4, i32, %union.anon.6, i32, i32, i32, i32, i64, ptr }
%struct._zend_refcounted_h = type { i32, %union.anon.3 }
%union.anon.3 = type { i32 }
%union.anon.4 = type { i32 }
%union.anon.6 = type { ptr }
%struct.zend_get_gc_buffer = type { ptr, ptr, ptr }
%struct._zend_call_stack = type { ptr, i64 }
%struct._zend_execute_data = type { ptr, ptr, ptr, ptr, %struct._zval_struct, ptr, ptr, ptr, ptr }
%struct._spl_array_object = type { %struct._zval_struct, i32, i32, i8, i8, ptr, ptr, ptr, ptr, ptr, ptr, ptr, %struct._zend_object }
%struct._zend_object = type { %struct._zend_refcounted_h, i32, ptr, ptr, ptr, [1 x %struct._zval_struct] }
%struct._zend_class_entry = type { i8, ptr, %union.anon.8, i32, i32, i32, i32, ptr, ptr, ptr, %struct._zend_array, %struct._zend_array, %struct._zend_array, ptr, ptr, ptr, ptr, ptr, ptr, ptr, ptr, ptr, ptr, ptr, ptr, ptr, ptr, ptr, ptr, ptr, ptr, ptr, %union.anon.9, ptr, ptr, ptr, ptr, i32, i32, %union.anon.10, ptr, ptr, ptr, ptr, i32, ptr, ptr, %union.anon.11 }
%union.anon.8 = type { ptr }
%union.anon.9 = type { ptr }
%union.anon.10 = type { ptr }
%union.anon.11 = type { %struct.anon.12 }
%struct.anon.12 = type { ptr, i32, i32 }
%struct._zend_string = type { %struct._zend_refcounted_h, i64, i64, [1 x i8] }

@.str = private unnamed_addr constant [2 x i8] c"z\00", align 1
@executor_globals = external global %struct._zend_executor_globals, align 8
@.str.2 = private unnamed_addr constant [65 x i8] c"Cannot append properties to objects, use %s::offsetSet() instead\00", align 1

; Function Attrs: nounwind uwtable
define internal void @spl_array_write_dimension(ptr noundef %0, ptr noundef %1, ptr noundef %2) #0 {
  %4 = alloca ptr, align 8
  %5 = alloca ptr, align 8
  %6 = alloca ptr, align 8
  store ptr %0, ptr %4, align 8
  store ptr %1, ptr %5, align 8
  store ptr %2, ptr %6, align 8
  %7 = load ptr, ptr %4, align 8
  %8 = load ptr, ptr %5, align 8
  %9 = load ptr, ptr %6, align 8
  call void @spl_array_write_dimension_ex(i32 noundef 1, ptr noundef %7, ptr noundef %8, ptr noundef %9)
  ret void
}

; Function Attrs: nounwind uwtable
define internal zeroext i1 @spl_array_is_object(ptr noundef %0) #0 {
  %2 = alloca ptr, align 8
  %3 = alloca ptr, align 8
  store ptr %0, ptr %3, align 8
  br label %4

4:                                                ; preds = %10, %1
  %5 = load ptr, ptr %3, align 8
  %6 = getelementptr inbounds %struct._spl_array_object, ptr %5, i32 0, i32 2
  %7 = load i32, ptr %6, align 4
  %8 = and i32 %7, 33554432
  %9 = icmp ne i32 %8, 0
  br i1 %9, label %10, label %16

10:                                               ; preds = %4
  %11 = load ptr, ptr %3, align 8
  %12 = getelementptr inbounds %struct._spl_array_object, ptr %11, i32 0, i32 0
  %13 = getelementptr inbounds %struct._zval_struct, ptr %12, i32 0, i32 0
  %14 = load ptr, ptr %13, align 8
  %15 = call ptr @spl_array_from_obj(ptr noundef %14)
  store ptr %15, ptr %3, align 8
  br label %4

16:                                               ; preds = %4
  %17 = load ptr, ptr %3, align 8
  %18 = getelementptr inbounds %struct._spl_array_object, ptr %17, i32 0, i32 2
  %19 = load i32, ptr %18, align 4
  %20 = and i32 %19, 16777216
  %21 = icmp ne i32 %20, 0
  br i1 %21, label %30, label %22

22:                                               ; preds = %16
  %23 = load ptr, ptr %3, align 8
  %24 = getelementptr inbounds %struct._spl_array_object, ptr %23, i32 0, i32 0
  store ptr %24, ptr %2, align 8
  %25 = load ptr, ptr %2, align 8
  %26 = getelementptr inbounds %struct._zval_struct, ptr %25, i32 0, i32 1
  %27 = load i8, ptr %26, align 8
  %28 = zext i8 %27 to i32
  %29 = icmp eq i32 %28, 8
  br label %30

30:                                               ; preds = %22, %16
  %31 = phi i1 [ true, %16 ], [ %29, %22 ]
  ret i1 %31
}

; Function Attrs: nounwind uwtable
define internal ptr @spl_array_from_obj(ptr noundef %0) #0 {
  %2 = alloca ptr, align 8
  store ptr %0, ptr %2, align 8
  %3 = load ptr, ptr %2, align 8
  %4 = getelementptr inbounds i8, ptr %3, i64 -88
  ret ptr %4
}

; Function Attrs: nounwind uwtable
define hidden void @spl_array_iterator_append(ptr noundef %0, ptr noundef %1) #0 {
  %3 = alloca ptr, align 8
  %4 = alloca ptr, align 8
  %5 = alloca ptr, align 8
  store ptr %0, ptr %3, align 8
  store ptr %1, ptr %4, align 8
  %6 = load ptr, ptr %3, align 8
  %7 = getelementptr inbounds %struct._zval_struct, ptr %6, i32 0, i32 0
  %8 = load ptr, ptr %7, align 8
  %9 = call ptr @spl_array_from_obj(ptr noundef %8)
  store ptr %9, ptr %5, align 8
  %10 = load ptr, ptr %5, align 8
  %11 = call zeroext i1 @spl_array_is_object(ptr noundef %10)
  br i1 %11, label %12, label %22

12:                                               ; preds = %2
  %13 = load ptr, ptr %3, align 8
  %14 = getelementptr inbounds %struct._zval_struct, ptr %13, i32 0, i32 0
  %15 = load ptr, ptr %14, align 8
  %16 = getelementptr inbounds %struct._zend_object, ptr %15, i32 0, i32 2
  %17 = load ptr, ptr %16, align 8
  %18 = getelementptr inbounds %struct._zend_class_entry, ptr %17, i32 0, i32 1
  %19 = load ptr, ptr %18, align 8
  %20 = getelementptr inbounds %struct._zend_string, ptr %19, i32 0, i32 3
  %21 = getelementptr inbounds [1 x i8], ptr %20, i64 0, i64 0
  call void (ptr, ptr, ...) @zend_throw_error(ptr noundef null, ptr noundef @.str.2, ptr noundef %21)
  br label %27

22:                                               ; preds = %2
  %23 = load ptr, ptr %3, align 8
  %24 = getelementptr inbounds %struct._zval_struct, ptr %23, i32 0, i32 0
  %25 = load ptr, ptr %24, align 8
  %26 = load ptr, ptr %4, align 8
  call void @spl_array_write_dimension(ptr noundef %25, ptr noundef null, ptr noundef %26)
  br label %27

27:                                               ; preds = %22, %12
  ret void
}

; Function Attrs: nounwind uwtable
define hidden void @zim_ArrayObject_append(ptr noundef %0, ptr noundef %1) #0 {
  %3 = alloca ptr, align 8
  %4 = alloca ptr, align 8
  %5 = alloca ptr, align 8
  store ptr %0, ptr %3, align 8
  store ptr %1, ptr %4, align 8
  %6 = load ptr, ptr %3, align 8
  %7 = getelementptr inbounds %struct._zend_execute_data, ptr %6, i32 0, i32 4
  %8 = getelementptr inbounds %struct._zval_struct, ptr %7, i32 0, i32 2
  %9 = load i32, ptr %8, align 4
  %10 = call i32 (i32, ptr, ...) @zend_parse_parameters(i32 noundef %9, ptr noundef @.str, ptr noundef %5)
  %11 = icmp eq i32 %10, -1
  br i1 %11, label %12, label %17

12:                                               ; preds = %2
  br label %13

13:                                               ; preds = %12
  %14 = load ptr, ptr getelementptr inbounds (%struct._zend_executor_globals, ptr @executor_globals, i32 0, i32 50), align 8
  %15 = icmp ne ptr %14, null
  call void @llvm.assume(i1 %15)
  br label %21

16:                                               ; No predecessors!
  br label %17

17:                                               ; preds = %16, %2
  %18 = load ptr, ptr %3, align 8
  %19 = getelementptr inbounds %struct._zend_execute_data, ptr %18, i32 0, i32 4
  %20 = load ptr, ptr %5, align 8
  call void @spl_array_iterator_append(ptr noundef %19, ptr noundef %20)
  br label %21

21:                                               ; preds = %17, %13
  ret void
}