; Function Attrs: nounwind uwtable
define hidden void @zim_ArrayObject_append(ptr nocapture noundef readonly %0, ptr nocapture readnone %1) #0 {
  %3 = alloca ptr, align 8
  %4 = getelementptr inbounds i8, ptr %0, i64 44
  %5 = load i32, ptr %4, align 4
  %6 = call i32 (i32, ptr, ...) @zend_parse_parameters(i32 noundef %5, ptr noundef nonnull @.str, ptr noundef nonnull %3) #11
  %7 = icmp eq i32 %6, -1
  br i1 %7, label %8, label %11

8:                                                ; preds = %2
  %9 = load ptr, ptr getelementptr inbounds (%struct._zend_executor_globals, ptr @executor_globals, i64 0, i32 50), align 8
  %10 = icmp ne ptr %9, null
  call void @llvm.assume(i1 %10)
  br label %spl_array_iterator_append.exit

11:                                               ; preds = %2
  %12 = getelementptr inbounds i8, ptr %0, i64 32
  %13 = load ptr, ptr %3, align 8
  %14 = load ptr, ptr %12, align 8
  %15 = getelementptr inbounds i8, ptr %14, i64 -68
  %16 = load i32, ptr %15, align 4
  %17 = and i32 %16, 33554432
  %.not6.i.i = icmp eq i32 %17, 0
  br i1 %.not6.i.i, label %._crit_edge.i.i, label %.lr.ph.i.i

.lr.ph.i.i:                                       ; preds = %11, %.lr.ph.i.i
  %.pn.i = phi ptr [ %18, %.lr.ph.i.i ], [ %14, %11 ]
  %.07.i.i = getelementptr inbounds i8, ptr %.pn.i, i64 -88
  %18 = load ptr, ptr %.07.i.i, align 8
  %19 = getelementptr inbounds i8, ptr %18, i64 -68
  %20 = load i32, ptr %19, align 4
  %21 = and i32 %20, 33554432
  %.not.i.i = icmp eq i32 %21, 0
  br i1 %.not.i.i, label %._crit_edge.i.i, label %.lr.ph.i.i

._crit_edge.i.i:                                  ; preds = %.lr.ph.i.i, %11
  %22 = phi ptr [ %14, %11 ], [ %18, %.lr.ph.i.i ]
  %.lcssa.i.i = phi i32 [ %16, %11 ], [ %20, %.lr.ph.i.i ]
  %23 = and i32 %.lcssa.i.i, 16777216
  %.not5.i.i = icmp eq i32 %23, 0
  br i1 %.not5.i.i, label %spl_array_is_object.exit.i, label %spl_array_is_object.exit.thread.i

spl_array_is_object.exit.i:                       ; preds = %._crit_edge.i.i
  %24 = getelementptr inbounds i8, ptr %22, i64 -80
  %25 = load i8, ptr %24, align 8
  %26 = icmp eq i8 %25, 8
  br i1 %26, label %spl_array_is_object.exit.thread.i, label %32

spl_array_is_object.exit.thread.i:                ; preds = %spl_array_is_object.exit.i, %._crit_edge.i.i
  %27 = getelementptr inbounds i8, ptr %14, i64 16
  %28 = load ptr, ptr %27, align 8
  %29 = getelementptr inbounds i8, ptr %28, i64 8
  %30 = load ptr, ptr %29, align 8
  %31 = getelementptr inbounds i8, ptr %30, i64 24
  call void (ptr, ptr, ...) @zend_throw_error(ptr noundef null, ptr noundef nonnull @.str.2, ptr noundef nonnull %31) #11
  br label %spl_array_iterator_append.exit

32:                                               ; preds = %spl_array_is_object.exit.i
  call fastcc void @spl_array_write_dimension_ex(i32 noundef 1, ptr noundef %14, ptr noundef null, ptr noundef %13)
  br label %spl_array_iterator_append.exit

spl_array_iterator_append.exit:                   ; preds = %32, %spl_array_is_object.exit.thread.i, %8
  ret void
}